target datalayout = "e-m:e-p270:32:32-p271:32:32-p272:64:64-i64:64-i128:128-f80:128-n8:16:32:64-S128"
target triple = "x86_64-pc-linux-gnu"

%struct.H5O_linfo_t = type { i8, i8, i64, i64, i64, i64, i64 }
%struct.H5O_loc_t = type { ptr, i64, i8 }

@H5G_init_g = external global i8, align 1
@H5_libterm_g = external global i8, align 1
@.str = private unnamed_addr constant [100 x i8] c"generated/home/dtcxzyw/WorkSpace/Projects/compilers/llvm-opt-benchmark/bench/hdf5/hdf5/src/H5Gobj.c\00", align 1
@H5E_SYM_g = external global i64, align 8
@H5E_CANTGET_g = external global i64, align 8
@.str.19 = private unnamed_addr constant [34 x i8] c"can't check for link info message\00", align 1
@H5E_NOTFOUND_g = external global i64, align 8
@__func__.H5G__obj_lookup = private unnamed_addr constant [16 x i8] c"H5G__obj_lookup\00", align 1
@.str.47 = private unnamed_addr constant [20 x i8] c"can't locate object\00", align 1

; Function Attrs: nounwind uwtable
define i32 @H5G__obj_lookup(ptr noundef %0, ptr noundef %1, ptr noundef %2, ptr noundef %3) #0 {
  %5 = alloca ptr, align 8
  %6 = alloca ptr, align 8
  %7 = alloca ptr, align 8
  %8 = alloca ptr, align 8
  %9 = alloca %struct.H5O_linfo_t, align 8
  %10 = alloca i32, align 4
  %11 = alloca i32, align 4
  %12 = alloca i64, align 8
  %13 = alloca i8, align 1
  store ptr %0, ptr %5, align 8, !tbaa !10
  store ptr %1, ptr %6, align 8, !tbaa !96
  store ptr %2, ptr %7, align 8, !tbaa !106
  store ptr %3, ptr %8, align 8, !tbaa !62
  call void @llvm.lifetime.start.p0(i64 48, ptr %9) #6
  call void @llvm.lifetime.start.p0(i64 4, ptr %10) #6
  call void @llvm.lifetime.start.p0(i64 4, ptr %11) #6
  store i32 0, ptr %11, align 4, !tbaa !12
  call void @llvm.lifetime.start.p0(i64 8, ptr %12) #6
  store i64 -1, ptr %12, align 8, !tbaa !23
  call void @llvm.lifetime.start.p0(i64 1, ptr %13) #6
  store i8 0, ptr %13, align 1, !tbaa !14
  %14 = load ptr, ptr %5, align 8, !tbaa !10
  %15 = getelementptr inbounds nuw %struct.H5O_loc_t, ptr %14, i32 0, i32 1
  %16 = load i64, ptr %15, align 8, !tbaa !56
  call void @H5AC_tag(i64 noundef %16, ptr noundef %12)
  %17 = load i8, ptr @H5G_init_g, align 1, !tbaa !14, !range !16, !noundef !17
  %18 = trunc i8 %17 to i1
  br i1 %18, label %23, label %19

19:                                               ; preds = %4
  %20 = load i8, ptr @H5_libterm_g, align 1, !tbaa !14, !range !16, !noundef !17
  %21 = trunc i8 %20 to i1
  %22 = xor i1 %21, true
  br label %23

23:                                               ; preds = %19, %4
  %24 = phi i1 [ true, %4 ], [ %22, %19 ]
  %25 = xor i1 %24, true
  %26 = xor i1 %25, true
  %27 = zext i1 %26 to i32
  %28 = sext i32 %27 to i64
  %29 = call i64 @llvm.expect.i64(i64 %28, i64 1)
  %30 = icmp ne i64 %29, 0
  br i1 %30, label %31, label %147

31:                                               ; preds = %23
  %32 = load ptr, ptr %5, align 8, !tbaa !10
  %33 = call i32 @H5G__obj_get_linfo(ptr noundef %32, ptr noundef %9)
  store i32 %33, ptr %10, align 4, !tbaa !12
  %34 = icmp slt i32 %33, 0
  br i1 %34, label %35, label %54

35:                                               ; preds = %31
  br label %36

36:                                               ; preds = %35
  br label %37

37:                                               ; preds = %36
  br label %38

38:                                               ; preds = %37
  %39 = load i64, ptr @H5E_SYM_g, align 8, !tbaa !23
  %40 = load i64, ptr @H5E_CANTGET_g, align 8, !tbaa !23
  %41 = call i32 (ptr, ptr, i32, i64, i64, ptr, ...) @H5E_printf_stack(ptr noundef @.str, ptr noundef @__func__.H5G__obj_lookup, i32 noundef 1070, i64 noundef %39, i64 noundef %40, ptr noundef @.str.19)
  br label %42

42:                                               ; preds = %38
  br label %43

43:                                               ; preds = %42
  store i8 1, ptr %13, align 1, !tbaa !14
  %44 = load i8, ptr %13, align 1, !tbaa !14, !range !16, !noundef !17
  %45 = trunc i8 %44 to i1
  %46 = zext i1 %45 to i8
  store i8 %46, ptr %13, align 1, !tbaa !14
  br label %47

47:                                               ; preds = %43
  br label %48

48:                                               ; preds = %47
  br label %49

49:                                               ; preds = %48
  store i32 -1, ptr %11, align 4, !tbaa !12
  br label %146

50:                                               ; No predecessors!
  br label %51

51:                                               ; preds = %50
  br label %52

52:                                               ; preds = %51
  br label %53

53:                                               ; preds = %52
  br label %54

54:                                               ; preds = %53, %31
  %55 = load i32, ptr %10, align 4, !tbaa !12
  %56 = icmp ne i32 %55, 0
  br i1 %56, label %57, label %118

57:                                               ; preds = %54
  %58 = getelementptr inbounds nuw %struct.H5O_linfo_t, ptr %9, i32 0, i32 5
  %59 = load i64, ptr %58, align 8, !tbaa !59
  %60 = icmp ne i64 %59, -1
  br i1 %60, label %61, label %90

61:                                               ; preds = %57
  %62 = load ptr, ptr %5, align 8, !tbaa !10
  %63 = getelementptr inbounds nuw %struct.H5O_loc_t, ptr %62, i32 0, i32 0
  %64 = load ptr, ptr %63, align 8, !tbaa !60
  %65 = load ptr, ptr %6, align 8, !tbaa !96
  %66 = load ptr, ptr %7, align 8, !tbaa !106
  %67 = load ptr, ptr %8, align 8, !tbaa !62
  %68 = call i32 @H5G__dense_lookup(ptr noundef %64, ptr noundef %9, ptr noundef %65, ptr noundef %66, ptr noundef %67)
  %69 = icmp slt i32 %68, 0
  br i1 %69, label %70, label %89

70:                                               ; preds = %61
  br label %71

71:                                               ; preds = %70
  br label %72

72:                                               ; preds = %71
  br label %73

73:                                               ; preds = %72
  %74 = load i64, ptr @H5E_SYM_g, align 8, !tbaa !23
  %75 = load i64, ptr @H5E_NOTFOUND_g, align 8, !tbaa !23
  %76 = call i32 (ptr, ptr, i32, i64, i64, ptr, ...) @H5E_printf_stack(ptr noundef @.str, ptr noundef @__func__.H5G__obj_lookup, i32 noundef 1076, i64 noundef %74, i64 noundef %75, ptr noundef @.str.47)
  br label %77

77:                                               ; preds = %73
  br label %78

78:                                               ; preds = %77
  store i8 1, ptr %13, align 1, !tbaa !14
  %79 = load i8, ptr %13, align 1, !tbaa !14, !range !16, !noundef !17
  %80 = trunc i8 %79 to i1
  %81 = zext i1 %80 to i8
  store i8 %81, ptr %13, align 1, !tbaa !14
  br label %82

82:                                               ; preds = %78
  br label %83

83:                                               ; preds = %82
  br label %84

84:                                               ; preds = %83
  store i32 -1, ptr %11, align 4, !tbaa !12
  br label %146

85:                                               ; No predecessors!
  br label %86

86:                                               ; preds = %85
  br label %87

87:                                               ; preds = %86
  br label %88

88:                                               ; preds = %87
  br label %89

89:                                               ; preds = %88, %61
  br label %117

90:                                               ; preds = %57
  %91 = load ptr, ptr %5, align 8, !tbaa !10
  %92 = load ptr, ptr %6, align 8, !tbaa !96
  %93 = load ptr, ptr %7, align 8, !tbaa !106
  %94 = load ptr, ptr %8, align 8, !tbaa !62
  %95 = call i32 @H5G__compact_lookup(ptr noundef %91, ptr noundef %92, ptr noundef %93, ptr noundef %94)
  %96 = icmp slt i32 %95, 0
  br i1 %96, label %97, label %116

97:                                               ; preds = %90
  br label %98

98:                                               ; preds = %97
  br label %99

99:                                               ; preds = %98
  br label %100

100:                                              ; preds = %99
  %101 = load i64, ptr @H5E_SYM_g, align 8, !tbaa !23
  %102 = load i64, ptr @H5E_NOTFOUND_g, align 8, !tbaa !23
  %103 = call i32 (ptr, ptr, i32, i64, i64, ptr, ...) @H5E_printf_stack(ptr noundef @.str, ptr noundef @__func__.H5G__obj_lookup, i32 noundef 1081, i64 noundef %101, i64 noundef %102, ptr noundef @.str.47)
  br label %104

104:                                              ; preds = %100
  br label %105

105:                                              ; preds = %104
  store i8 1, ptr %13, align 1, !tbaa !14
  %106 = load i8, ptr %13, align 1, !tbaa !14, !range !16, !noundef !17
  %107 = trunc i8 %106 to i1
  %108 = zext i1 %107 to i8
  store i8 %108, ptr %13, align 1, !tbaa !14
  br label %109

109:                                              ; preds = %105
  br label %110

110:                                              ; preds = %109
  br label %111

111:                                              ; preds = %110
  store i32 -1, ptr %11, align 4, !tbaa !12
  br label %146

112:                                              ; No predecessors!
  br label %113

113:                                              ; preds = %112
  br label %114

114:                                              ; preds = %113
  br label %115

115:                                              ; preds = %114
  br label %116

116:                                              ; preds = %115, %90
  br label %117

117:                                              ; preds = %116, %89
  br label %145

118:                                              ; preds = %54
  %119 = load ptr, ptr %5, align 8, !tbaa !10
  %120 = load ptr, ptr %6, align 8, !tbaa !96
  %121 = load ptr, ptr %7, align 8, !tbaa !106
  %122 = load ptr, ptr %8, align 8, !tbaa !62
  %123 = call i32 @H5G__stab_lookup(ptr noundef %119, ptr noundef %120, ptr noundef %121, ptr noundef %122)
  %124 = icmp slt i32 %123, 0
  br i1 %124, label %125, label %144

125:                                              ; preds = %118
  br label %126

126:                                              ; preds = %125
  br label %127

127:                                              ; preds = %126
  br label %128

128:                                              ; preds = %127
  %129 = load i64, ptr @H5E_SYM_g, align 8, !tbaa !23
  %130 = load i64, ptr @H5E_NOTFOUND_g, align 8, !tbaa !23
  %131 = call i32 (ptr, ptr, i32, i64, i64, ptr, ...) @H5E_printf_stack(ptr noundef @.str, ptr noundef @__func__.H5G__obj_lookup, i32 noundef 1087, i64 noundef %129, i64 noundef %130, ptr noundef @.str.47)
  br label %132

132:                                              ; preds = %128
  br label %133

133:                                              ; preds = %132
  store i8 1, ptr %13, align 1, !tbaa !14
  %134 = load i8, ptr %13, align 1, !tbaa !14, !range !16, !noundef !17
  %135 = trunc i8 %134 to i1
  %136 = zext i1 %135 to i8
  store i8 %136, ptr %13, align 1, !tbaa !14
  br label %137

137:                                              ; preds = %133
  br label %138

138:                                              ; preds = %137
  br label %139

139:                                              ; preds = %138
  store i32 -1, ptr %11, align 4, !tbaa !12
  br label %146

140:                                              ; No predecessors!
  br label %141

141:                                              ; preds = %140
  br label %142

142:                                              ; preds = %141
  br label %143

143:                                              ; preds = %142
  br label %144

144:                                              ; preds = %143, %118
  br label %145

145:                                              ; preds = %144, %117
  br label %146

146:                                              ; preds = %145, %139, %111, %84, %49
  br label %147

147:                                              ; preds = %146, %23
  %148 = load i64, ptr %12, align 8, !tbaa !23
  call void @H5AC_tag(i64 noundef %148, ptr noundef null)
  %149 = load i32, ptr %11, align 4, !tbaa !12
  call void @llvm.lifetime.end.p0(i64 1, ptr %13) #6
  call void @llvm.lifetime.end.p0(i64 8, ptr %12) #6
  call void @llvm.lifetime.end.p0(i64 4, ptr %11) #6
  call void @llvm.lifetime.end.p0(i64 4, ptr %10) #6
  call void @llvm.lifetime.end.p0(i64 48, ptr %9) #6
  ret i32 %149
}