; Function Attrs: nounwind uwtable
define range(i32 -1, 1) i32 @H5G__obj_lookup(ptr noundef %0, ptr noundef %1, ptr noundef %2, ptr noundef %3) local_unnamed_addr #0 {
  %5 = alloca %struct.H5O_linfo_t, align 8
  %6 = alloca i64, align 8
  call void @llvm.lifetime.start.p0(i64 48, ptr nonnull %5) #5
  call void @llvm.lifetime.start.p0(i64 8, ptr nonnull %6) #5
  store i64 -1, ptr %6, align 8, !tbaa !14
  %7 = getelementptr inbounds nuw i8, ptr %0, i64 8
  %8 = load i64, ptr %7, align 8, !tbaa !41
  call void @H5AC_tag(i64 noundef %8, ptr noundef nonnull %6) #5
  %9 = load i8, ptr @H5G_init_g, align 1, !tbaa !3, !range !7, !noundef !8
  %10 = trunc nuw i8 %9 to i1
  %11 = load i8, ptr @H5_libterm_g, align 1, !range !7
  %12 = trunc nuw i8 %11 to i1
  %13 = xor i1 %12, true
  %14 = select i1 %10, i1 true, i1 %13
  br i1 %14, label %15, label %48, !prof !9

15:                                               ; preds = %4
  %16 = call i32 @H5G__obj_get_linfo(ptr noundef nonnull %0, ptr noundef nonnull %5)
  %17 = icmp slt i32 %16, 0
  br i1 %17, label %18, label %22

18:                                               ; preds = %15
  %19 = load i64, ptr @H5E_SYM_g, align 8, !tbaa !14
  %20 = load i64, ptr @H5E_CANTGET_g, align 8, !tbaa !14
  %21 = call i32 (ptr, ptr, i32, i64, i64, ptr, ...) @H5E_printf_stack(ptr noundef nonnull @.str, ptr noundef nonnull @__func__.H5G__obj_lookup, i32 noundef 1070, i64 noundef %19, i64 noundef %20, ptr noundef nonnull @.str.19) #5
  br label %48

22:                                               ; preds = %15
  %.not = icmp eq i32 %16, 0
  br i1 %.not, label %41, label %23

23:                                               ; preds = %22
  %24 = getelementptr inbounds nuw i8, ptr %5, i64 32
  %25 = load i64, ptr %24, align 8, !tbaa !44
  %.not20 = icmp eq i64 %25, -1
  br i1 %.not20, label %34, label %26

26:                                               ; preds = %23
  %27 = load ptr, ptr %0, align 8, !tbaa !45
  %28 = call i32 @H5G__dense_lookup(ptr noundef %27, ptr noundef nonnull %5, ptr noundef %1, ptr noundef %2, ptr noundef %3) #5
  %29 = icmp slt i32 %28, 0
  br i1 %29, label %30, label %48

30:                                               ; preds = %26
  %31 = load i64, ptr @H5E_SYM_g, align 8, !tbaa !14
  %32 = load i64, ptr @H5E_NOTFOUND_g, align 8, !tbaa !14
  %33 = call i32 (ptr, ptr, i32, i64, i64, ptr, ...) @H5E_printf_stack(ptr noundef nonnull @.str, ptr noundef nonnull @__func__.H5G__obj_lookup, i32 noundef 1076, i64 noundef %31, i64 noundef %32, ptr noundef nonnull @.str.47) #5
  br label %48

34:                                               ; preds = %23
  %35 = call i32 @H5G__compact_lookup(ptr noundef nonnull %0, ptr noundef %1, ptr noundef %2, ptr noundef %3) #5
  %36 = icmp slt i32 %35, 0
  br i1 %36, label %37, label %48

37:                                               ; preds = %34
  %38 = load i64, ptr @H5E_SYM_g, align 8, !tbaa !14
  %39 = load i64, ptr @H5E_NOTFOUND_g, align 8, !tbaa !14
  %40 = call i32 (ptr, ptr, i32, i64, i64, ptr, ...) @H5E_printf_stack(ptr noundef nonnull @.str, ptr noundef nonnull @__func__.H5G__obj_lookup, i32 noundef 1081, i64 noundef %38, i64 noundef %39, ptr noundef nonnull @.str.47) #5
  br label %48

41:                                               ; preds = %22
  %42 = call i32 @H5G__stab_lookup(ptr noundef nonnull %0, ptr noundef %1, ptr noundef %2, ptr noundef %3) #5
  %43 = icmp slt i32 %42, 0
  br i1 %43, label %44, label %48

44:                                               ; preds = %41
  %45 = load i64, ptr @H5E_SYM_g, align 8, !tbaa !14
  %46 = load i64, ptr @H5E_NOTFOUND_g, align 8, !tbaa !14
  %47 = call i32 (ptr, ptr, i32, i64, i64, ptr, ...) @H5E_printf_stack(ptr noundef nonnull @.str, ptr noundef nonnull @__func__.H5G__obj_lookup, i32 noundef 1087, i64 noundef %45, i64 noundef %46, ptr noundef nonnull @.str.47) #5
  br label %48

48:                                               ; preds = %18, %30, %37, %44, %41, %26, %34, %4
  %.0 = phi i32 [ -1, %18 ], [ -1, %30 ], [ 0, %26 ], [ -1, %37 ], [ 0, %34 ], [ -1, %44 ], [ 0, %41 ], [ 0, %4 ]
  %49 = load i64, ptr %6, align 8, !tbaa !14
  call void @H5AC_tag(i64 noundef %49, ptr noundef null) #5
  call void @llvm.lifetime.end.p0(i64 8, ptr nonnull %6) #5
  call void @llvm.lifetime.end.p0(i64 48, ptr nonnull %5) #5
  ret i32 %.0
}